; ModuleID = '10/1153.c'
source_filename = "10/1153.c"
target datalayout = "e-m:e-p270:32:32-p271:32:32-p272:64:64-i64:64-f80:128-n8:16:32:64-S128"
target triple = "x86_64-pc-linux-gnu"

@n = common dso_local global i32 0, align 4
@.str = private unnamed_addr constant [3 x i8] c"%d\00", align 1
@.str.1 = private unnamed_addr constant [4 x i8] c"%d\0A\00", align 1

; Function Attrs: noinline nounwind uwtable
define dso_local i32 @run() #0 {
  %1 = alloca i32, align 4
  %2 = alloca i32, align 4
  %3 = alloca i32, align 4
  %4 = alloca [33 x i32], align 16
  %5 = alloca [33 x i32], align 16
  store i32 1, i32* %2, align 4
  br label %6

6:                                                ; preds = %15, %0
  %7 = load i32, i32* %2, align 4
  %8 = load i32, i32* @n, align 4
  %9 = icmp sle i32 %7, %8
  br i1 %9, label %10, label %18

10:                                               ; preds = %6
  %11 = load i32, i32* %2, align 4
  %12 = sext i32 %11 to i64
  %13 = getelementptr inbounds [33 x i32], [33 x i32]* %4, i64 0, i64 %12
  %14 = call i32 (i8*, ...) @__isoc99_scanf(i8* getelementptr inbounds ([3 x i8], [3 x i8]* @.str, i64 0, i64 0), i32* %13)
  br label %15

15:                                               ; preds = %10
  %16 = load i32, i32* %2, align 4
  %17 = add nsw i32 %16, 1
  store i32 %17, i32* %2, align 4
  br label %6

18:                                               ; preds = %6
  store i32 1, i32* %2, align 4
  br label %19

19:                                               ; preds = %27, %18
  %20 = load i32, i32* %2, align 4
  %21 = load i32, i32* @n, align 4
  %22 = icmp sle i32 %20, %21
  br i1 %22, label %23, label %30

23:                                               ; preds = %19
  %24 = load i32, i32* %2, align 4
  %25 = sext i32 %24 to i64
  %26 = getelementptr inbounds [33 x i32], [33 x i32]* %5, i64 0, i64 %25
  store i32 1, i32* %26, align 4
  br label %27

27:                                               ; preds = %23
  %28 = load i32, i32* %2, align 4
  %29 = add nsw i32 %28, 1
  store i32 %29, i32* %2, align 4
  br label %19

30:                                               ; preds = %19
  store i32 1, i32* %2, align 4
  br label %31

31:                                               ; preds = %78, %30
  %32 = load i32, i32* %2, align 4
  %33 = load i32, i32* @n, align 4
  %34 = icmp sle i32 %32, %33
  br i1 %34, label %35, label %81

35:                                               ; preds = %31
  %36 = load i32, i32* %2, align 4
  %37 = add nsw i32 %36, 1
  store i32 %37, i32* %3, align 4
  br label %38

38:                                               ; preds = %74, %35
  %39 = load i32, i32* %3, align 4
  %40 = load i32, i32* @n, align 4
  %41 = icmp sle i32 %39, %40
  br i1 %41, label %42, label %77

42:                                               ; preds = %38
  %43 = load i32, i32* %2, align 4
  %44 = sext i32 %43 to i64
  %45 = getelementptr inbounds [33 x i32], [33 x i32]* %4, i64 0, i64 %44
  %46 = load i32, i32* %45, align 4
  %47 = load i32, i32* %3, align 4
  %48 = sext i32 %47 to i64
  %49 = getelementptr inbounds [33 x i32], [33 x i32]* %4, i64 0, i64 %48
  %50 = load i32, i32* %49, align 4
  %51 = icmp sge i32 %46, %50
  br i1 %51, label %52, label %73

52:                                               ; preds = %42
  %53 = load i32, i32* %3, align 4
  %54 = sext i32 %53 to i64
  %55 = getelementptr inbounds [33 x i32], [33 x i32]* %5, i64 0, i64 %54
  %56 = load i32, i32* %55, align 4
  %57 = load i32, i32* %2, align 4
  %58 = sext i32 %57 to i64
  %59 = getelementptr inbounds [33 x i32], [33 x i32]* %5, i64 0, i64 %58
  %60 = load i32, i32* %59, align 4
  %61 = add nsw i32 %60, 1
  %62 = icmp slt i32 %56, %61
  br i1 %62, label %63, label %72

63:                                               ; preds = %52
  %64 = load i32, i32* %2, align 4
  %65 = sext i32 %64 to i64
  %66 = getelementptr inbounds [33 x i32], [33 x i32]* %5, i64 0, i64 %65
  %67 = load i32, i32* %66, align 4
  %68 = add nsw i32 %67, 1
  %69 = load i32, i32* %3, align 4
  %70 = sext i32 %69 to i64
  %71 = getelementptr inbounds [33 x i32], [33 x i32]* %5, i64 0, i64 %70
  store i32 %68, i32* %71, align 4
  br label %72

72:                                               ; preds = %63, %52
  br label %73

73:                                               ; preds = %72, %42
  br label %74

74:                                               ; preds = %73
  %75 = load i32, i32* %3, align 4
  %76 = add nsw i32 %75, 1
  store i32 %76, i32* %3, align 4
  br label %38

77:                                               ; preds = %38
  br label %78

78:                                               ; preds = %77
  %79 = load i32, i32* %2, align 4
  %80 = add nsw i32 %79, 1
  store i32 %80, i32* %2, align 4
  br label %31

81:                                               ; preds = %31
  store i32 0, i32* %3, align 4
  store i32 1, i32* %2, align 4
  br label %82

82:                                               ; preds = %99, %81
  %83 = load i32, i32* %2, align 4
  %84 = load i32, i32* @n, align 4
  %85 = icmp sle i32 %83, %84
  br i1 %85, label %86, label %102

86:                                               ; preds = %82
  %87 = load i32, i32* %2, align 4
  %88 = sext i32 %87 to i64
  %89 = getelementptr inbounds [33 x i32], [33 x i32]* %5, i64 0, i64 %88
  %90 = load i32, i32* %89, align 4
  %91 = load i32, i32* %3, align 4
  %92 = icmp sgt i32 %90, %91
  br i1 %92, label %93, label %98

93:                                               ; preds = %86
  %94 = load i32, i32* %2, align 4
  %95 = sext i32 %94 to i64
  %96 = getelementptr inbounds [33 x i32], [33 x i32]* %5, i64 0, i64 %95
  %97 = load i32, i32* %96, align 4
  store i32 %97, i32* %3, align 4
  br label %98

98:                                               ; preds = %93, %86
  br label %99

99:                                               ; preds = %98
  %100 = load i32, i32* %2, align 4
  %101 = add nsw i32 %100, 1
  store i32 %101, i32* %2, align 4
  br label %82

102:                                              ; preds = %82
  %103 = load i32, i32* %3, align 4
  %104 = call i32 (i8*, ...) @printf(i8* getelementptr inbounds ([4 x i8], [4 x i8]* @.str.1, i64 0, i64 0), i32 %103)
  %105 = load i32, i32* %1, align 4
  ret i32 %105
}

declare dso_local i32 @__isoc99_scanf(i8*, ...) #1

declare dso_local i32 @printf(i8*, ...) #1

; Function Attrs: noinline nounwind uwtable
define dso_local i32 @main() #0 {
  %1 = alloca i32, align 4
  store i32 0, i32* %1, align 4
  %2 = call i32 (i8*, ...) @__isoc99_scanf(i8* getelementptr inbounds ([3 x i8], [3 x i8]* @.str, i64 0, i64 0), i32* @n)
  br label %3

3:                                                ; preds = %6, %0
  %4 = load i32, i32* @n, align 4
  %5 = icmp ne i32 %4, 0
  br i1 %5, label %6, label %9

6:                                                ; preds = %3
  %7 = call i32 @run()
  store i32 0, i32* @n, align 4
  %8 = call i32 (i8*, ...) @__isoc99_scanf(i8* getelementptr inbounds ([3 x i8], [3 x i8]* @.str, i64 0, i64 0), i32* @n)
  br label %3

9:                                                ; preds = %3
  ret i32 0
}


!llvm.module.flags = !{!0}
!llvm.ident = !{!1}

!0 = !{i32 1, !"wchar_size", i32 4}
!1 = !{!"clang version 10.0.0-4ubuntu1 "}
